TN:
SF:/home/matheus/Algoritmos/ZipIter/include/ZipIter/Helpers.h
FN:68,_ZSt4swapIJRiS0_EEvOSt5tupleIJDpT_EES5_
FN:92,_ZN2it4help9execTupleINS0_UlOT_E_EJN9__gnu_cxx17__normal_iteratorIPiSt6vectorIiSaIiEEEES7_EJLm0ELm1EEJEEEvS2_RSt5tupleIJDpT0_EESt16integer_sequenceImJXspT1_EEEDpOT2_
FN:92,_ZN2it4help9execTupleINS0_UlOT_E0_EJN9__gnu_cxx17__normal_iteratorIPiSt6vectorIiSaIiEEEES7_EJLm0ELm1EEJEEEvS2_RSt5tupleIJDpT0_EESt16integer_sequenceImJXspT1_EEEDpOT2_
FN:92,_ZN2it4help9execTupleINS0_UlOT_iE1_EJN9__gnu_cxx17__normal_iteratorIPiSt6vectorIiSaIiEEEES7_EJLm0ELm1EEJRiEEEvS2_RSt5tupleIJDpT0_EESt16integer_sequenceImJXspT1_EEEDpOT2_
FN:92,_ZN2it4help9execTupleINS0_UlOT_E_EJN9__gnu_cxx17__normal_iteratorIPiSt6vectorIiSaIiEEEESt14_List_iteratorIiESt23_Rb_tree_const_iteratorIiES7_EJLm0ELm1ELm2ELm3EEJEEEvS2_RSt5tupleIJDpT0_EESt16integer_sequenceImJXspT1_EEEDpOT2_
FN:98,_ZN2it4help9execTupleINS0_UlOT_iE1_EJN9__gnu_cxx17__normal_iteratorIPiSt6vectorIiSaIiEEEES7_EJRiEEEvS2_RSt5tupleIJDpT0_EEDpOT1_
FN:98,_ZN2it4help9execTupleINS0_UlOT_E_EJN9__gnu_cxx17__normal_iteratorIPiSt6vectorIiSaIiEEEES7_EJEEEvS2_RSt5tupleIJDpT0_EEDpOT1_
FN:98,_ZN2it4help9execTupleINS0_UlOT_E0_EJN9__gnu_cxx17__normal_iteratorIPiSt6vectorIiSaIiEEEES7_EJEEEvS2_RSt5tupleIJDpT0_EEDpOT1_
FN:98,_ZN2it4help9execTupleINS0_UlOT_E_EJN9__gnu_cxx17__normal_iteratorIPiSt6vectorIiSaIiEEEESt14_List_iteratorIiESt23_Rb_tree_const_iteratorIiES7_EJEEEvS2_RSt5tupleIJDpT0_EEDpOT1_
FN:111,_ZN2it4help7reverseILm4EZNS_7forEachIJRSt6vectorIiSaIiEERNSt7__cxx114listIiS4_EERSt3setIiSt4lessIiES4_ERPiZN12_GLOBAL__N_128LoopingTest_ForEachFunc_Test8TestBodyEvEUlT_T0_T1_T2_E_EEEvDpOT_EUlSK_DpOT0_E_JS6_SA_SF_SH_OSO_EJLm0ELm1ELm2ELm3EEJLm0EEEEDcSL_OSt5tupleIJDpT1_EESt16integer_sequenceImJXspT2_EEES12_ImJXspT3_EEE
FN:117,_ZN2it4help7reverseILm4EZNS_7forEachIJRSt6vectorIiSaIiEERNSt7__cxx114listIiS4_EERSt3setIiSt4lessIiES4_ERPiZN12_GLOBAL__N_128LoopingTest_ForEachFunc_Test8TestBodyEvEUlT_T0_T1_T2_E_EEEvDpOT_EUlSK_DpOT0_E_JS6_SA_SF_SH_SO_EEEDcSL_DpOT1_
FN:180,_ZNK2it4helpUlOT_E_clIRPiEEDaS2_
FN:180,_ZNK2it4helpUlOT_E_clIRSt23_Rb_tree_const_iteratorIiEEEDaS2_
FN:180,_ZNK2it4helpUlOT_E_clIRN9__gnu_cxx17__normal_iteratorIPiSt6vectorIiSaIiEEEEEEDaS2_
FN:180,_ZNK2it4helpUlOT_E_clIRSt14_List_iteratorIiEEEDaS2_
FN:182,_ZNK2it4helpUlOT_E0_clIRPiEEDaS2_
FN:182,_ZNK2it4helpUlOT_E0_clIRN9__gnu_cxx17__normal_iteratorIPiSt6vectorIiSaIiEEEEEEDaS2_
FN:184,_ZNK2it4helpUlOT_iE1_clIRN9__gnu_cxx17__normal_iteratorIPiSt6vectorIiSaIiEEEEEEDaS2_i
FN:184,_ZNK2it4helpUlOT_iE1_clIRPiEEDaS2_i
FN:196,_ZN2it4help5beginIRSt5arrayIiLm10EELi0EEEDcOT_
FN:196,_ZN2it4help5beginIRSt6vectorIiSaIiEELi0EEEDcOT_
FN:196,_ZN2it4help5beginIRNSt7__cxx114listIiSaIiEEELi0EEEDcOT_
FN:196,_ZN2it4help5beginIRSt3setIiSt4lessIiESaIiEELi0EEEDcOT_
FN:202,_ZN2it4help5beginIPiLi0EEEDcT_
FN:209,_ZN2it4help3endIRNSt7__cxx114listIiSaIiEEELi0EEEDcOT_
FN:209,_ZN2it4help3endIRSt3setIiSt4lessIiESaIiEELi0EEEDcOT_
FN:209,_ZN2it4help3endIRSt5arrayIiLm10EELi0EEEDcOT_
FN:209,_ZN2it4help3endIRSt6vectorIiSaIiEELi0EEEDcOT_
FN:215,_ZN2it4help3endIPiLi0EEEDcT_
FN:228,_ZN2it4help8packArgsIJRiS2_EEEDcSt5tupleIJDpT_EE
FN:228,_ZN2it4help8packArgsIJiiEEEDcSt5tupleIJDpT_EE
FN:228,_ZN2it4help8packArgsIJRiS2_RKiS2_EEEDcSt5tupleIJDpT_EE
FN:240,_ZN2it4help8packArgsIJRiS2_EJRSt5tupleIJiiEEEEEDcS3_IJDpT_EEDpOT0_
FN:240,_ZN2it4help8packArgsIJiiEJSt5tupleIJRiS3_EEEEEDcS2_IJDpT_EEDpOT0_
FN:240,_ZN2it4help8packArgsIJRiS2_EJSt5tupleIJS2_S2_EEEEEDcS3_IJDpT_EEDpOT0_
FN:246,_ZN2it4help8packArgsIRiJSt5tupleIJS2_S2_EEEEEDcOT_DpOT0_
FNDA:128,_ZN2it4help8packArgsIJRiS2_RKiS2_EEEDcSt5tupleIJDpT_EE
FNDA:160,_ZN2it4help9execTupleINS0_UlOT_E_EJN9__gnu_cxx17__normal_iteratorIPiSt6vectorIiSaIiEEEESt14_List_iteratorIiESt23_Rb_tree_const_iteratorIiES7_EJEEEvS2_RSt5tupleIJDpT0_EEDpOT1_
FNDA:160,_ZNK2it4helpUlOT_E_clIRSt14_List_iteratorIiEEEDaS2_
FNDA:36,_ZN2it4help8packArgsIJRiS2_EJSt5tupleIJS2_S2_EEEEEDcS3_IJDpT_EEDpOT0_
FNDA:65,_ZNK2it4helpUlOT_E0_clIRN9__gnu_cxx17__normal_iteratorIPiSt6vectorIiSaIiEEEEEEDaS2_
FNDA:160,_ZN2it4help9execTupleINS0_UlOT_E_EJN9__gnu_cxx17__normal_iteratorIPiSt6vectorIiSaIiEEEESt14_List_iteratorIiESt23_Rb_tree_const_iteratorIiES7_EJLm0ELm1ELm2ELm3EEJEEEvS2_RSt5tupleIJDpT0_EESt16integer_sequenceImJXspT1_EEEDpOT2_
FNDA:11,_ZN2it4help3endIRSt6vectorIiSaIiEELi0EEEDcOT_
FNDA:5,_ZN2it4help3endIPiLi0EEEDcT_
FNDA:65,_ZNK2it4helpUlOT_E0_clIRPiEEDaS2_
FNDA:5,_ZNK2it4helpUlOT_iE1_clIRPiEEDaS2_i
FNDA:5,_ZN2it4help5beginIRSt3setIiSt4lessIiESaIiEELi0EEEDcOT_
FNDA:5,_ZNK2it4helpUlOT_iE1_clIRN9__gnu_cxx17__normal_iteratorIPiSt6vectorIiSaIiEEEEEEDaS2_i
FNDA:5,_ZN2it4help9execTupleINS0_UlOT_iE1_EJN9__gnu_cxx17__normal_iteratorIPiSt6vectorIiSaIiEEEES7_EJLm0ELm1EEJRiEEEvS2_RSt5tupleIJDpT0_EESt16integer_sequenceImJXspT1_EEEDpOT2_
FNDA:6,_ZN2it4help3endIRSt5arrayIiLm10EELi0EEEDcOT_
FNDA:5,_ZN2it4help5beginIPiLi0EEEDcT_
FNDA:76,_ZN2it4help8packArgsIJiiEJSt5tupleIJRiS3_EEEEEDcS2_IJDpT_EEDpOT0_
FNDA:160,_ZNK2it4helpUlOT_E_clIRSt23_Rb_tree_const_iteratorIiEEEDaS2_
FNDA:0,_ZN2it4help8packArgsIJiiEEEDcSt5tupleIJDpT_EE
FNDA:5,_ZN2it4help3endIRSt3setIiSt4lessIiESaIiEELi0EEEDcOT_
FNDA:1,_ZN2it4help7reverseILm4EZNS_7forEachIJRSt6vectorIiSaIiEERNSt7__cxx114listIiS4_EERSt3setIiSt4lessIiES4_ERPiZN12_GLOBAL__N_128LoopingTest_ForEachFunc_Test8TestBodyEvEUlT_T0_T1_T2_E_EEEvDpOT_EUlSK_DpOT0_E_JS6_SA_SF_SH_SO_EEEDcSL_DpOT1_
FNDA:65,_ZN2it4help9execTupleINS0_UlOT_E0_EJN9__gnu_cxx17__normal_iteratorIPiSt6vectorIiSaIiEEEES7_EJEEEvS2_RSt5tupleIJDpT0_EEDpOT1_
FNDA:30,_ZN2it4help8packArgsIRiJSt5tupleIJS2_S2_EEEEEDcOT_DpOT0_
FNDA:223,_ZNK2it4helpUlOT_E_clIRN9__gnu_cxx17__normal_iteratorIPiSt6vectorIiSaIiEEEEEEDaS2_
FNDA:65,_ZN2it4help9execTupleINS0_UlOT_E0_EJN9__gnu_cxx17__normal_iteratorIPiSt6vectorIiSaIiEEEES7_EJLm0ELm1EEJEEEvS2_RSt5tupleIJDpT0_EESt16integer_sequenceImJXspT1_EEEDpOT2_
FNDA:5,_ZN2it4help5beginIRNSt7__cxx114listIiSaIiEEELi0EEEDcOT_
FNDA:223,_ZNK2it4helpUlOT_E_clIRPiEEDaS2_
FNDA:5,_ZN2it4help3endIRNSt7__cxx114listIiSaIiEEELi0EEEDcOT_
FNDA:0,_ZN2it4help8packArgsIJRiS2_EJRSt5tupleIJiiEEEEEDcS3_IJDpT_EEDpOT0_
FNDA:63,_ZN2it4help9execTupleINS0_UlOT_E_EJN9__gnu_cxx17__normal_iteratorIPiSt6vectorIiSaIiEEEES7_EJEEEvS2_RSt5tupleIJDpT0_EEDpOT1_
FNDA:7,_ZN2it4help5beginIRSt5arrayIiLm10EELi0EEEDcOT_
FNDA:12,_ZN2it4help5beginIRSt6vectorIiSaIiEELi0EEEDcOT_
FNDA:63,_ZN2it4help9execTupleINS0_UlOT_E_EJN9__gnu_cxx17__normal_iteratorIPiSt6vectorIiSaIiEEEES7_EJLm0ELm1EEJEEEvS2_RSt5tupleIJDpT0_EESt16integer_sequenceImJXspT1_EEEDpOT2_
FNDA:1,_ZN2it4help7reverseILm4EZNS_7forEachIJRSt6vectorIiSaIiEERNSt7__cxx114listIiS4_EERSt3setIiSt4lessIiES4_ERPiZN12_GLOBAL__N_128LoopingTest_ForEachFunc_Test8TestBodyEvEUlT_T0_T1_T2_E_EEEvDpOT_EUlSK_DpOT0_E_JS6_SA_SF_SH_OSO_EJLm0ELm1ELm2ELm3EEJLm0EEEEDcSL_OSt5tupleIJDpT1_EESt16integer_sequenceImJXspT2_EEES12_ImJXspT3_EEE
FNDA:182,_ZN2it4help8packArgsIJRiS2_EEEDcSt5tupleIJDpT_EE
FNDA:5,_ZN2it4help9execTupleINS0_UlOT_iE1_EJN9__gnu_cxx17__normal_iteratorIPiSt6vectorIiSaIiEEEES7_EJRiEEEvS2_RSt5tupleIJDpT0_EEDpOT1_
FNDA:5,_ZSt4swapIJRiS0_EEvOSt5tupleIJDpT_EES5_
FNF:36
FNH:34
DA:68,5
DA:70,5
DA:71,5
DA:92,293
DA:94,293
DA:95,293
DA:98,293
DA:100,293
DA:111,1
DA:113,1
DA:117,1
DA:119,2
DA:121,2
DA:180,766
DA:182,130
DA:184,10
DA:196,29
DA:198,29
DA:202,5
DA:204,5
DA:209,27
DA:211,27
DA:215,5
DA:217,5
DA:228,310
DA:230,310
DA:240,112
DA:242,112
DA:246,30
DA:248,30
DA:249,60
LF:31
LH:31
end_of_record
TN:
SF:/home/matheus/Algoritmos/ZipIter/include/ZipIter/ZipIter.h
FN:34,_ZN2it7ZipIterIN9__gnu_cxx17__normal_iteratorIPiSt6vectorIiSaIiEEEEJS3_EEC2EOS8_
FN:34,_ZN2it7ZipIterIN9__gnu_cxx17__normal_iteratorIPiSt6vectorIiSaIiEEEEJS3_EEaSERKS8_
FN:56,_ZN2it7ZipIterIN9__gnu_cxx17__normal_iteratorIPiSt6vectorIiSaIiEEEEJSt14_List_iteratorIiESt23_Rb_tree_const_iteratorIiES3_EEC2ES7_S9_SB_S3_
FN:56,_ZN2it7ZipIterIN9__gnu_cxx17__normal_iteratorIPiSt6vectorIiSaIiEEEEJS3_EEC2ES7_S3_
FN:65,_ZN2it7ZipIterIN9__gnu_cxx17__normal_iteratorIPiSt6vectorIiSaIiEEEEJSt14_List_iteratorIiESt23_Rb_tree_const_iteratorIiES3_EEppEv
FN:65,_ZN2it7ZipIterIN9__gnu_cxx17__normal_iteratorIPiSt6vectorIiSaIiEEEEJS3_EEppEv
FN:71,_ZN2it7ZipIterIN9__gnu_cxx17__normal_iteratorIPiSt6vectorIiSaIiEEEEJS3_EEmmISt26random_access_iterator_tagLi0EEERS8_v
FN:78,_ZNK2it7ZipIterIN9__gnu_cxx17__normal_iteratorIPiSt6vectorIiSaIiEEEEJS3_EEplISt26random_access_iterator_tagLi0EEES8_i
FN:81,_ZNK2it7ZipIterIN9__gnu_cxx17__normal_iteratorIPiSt6vectorIiSaIiEEEEJS3_EEmiISt26random_access_iterator_tagLi0EEES8_i
FN:88,_ZNK2it7ZipIterIN9__gnu_cxx17__normal_iteratorIPiSt6vectorIiSaIiEEEEJS3_EEmiISt26random_access_iterator_tagLi0EEElRKS8_
FN:93,_ZNK2it7ZipIterIN9__gnu_cxx17__normal_iteratorIPiSt6vectorIiSaIiEEEEJS3_EEltIS8_EEbRKT_
FN:96,_ZNK2it7ZipIterIN9__gnu_cxx17__normal_iteratorIPiSt6vectorIiSaIiEEEEJS3_EEeqIS8_EEbRKT_
FN:99,_ZNK2it7ZipIterIN9__gnu_cxx17__normal_iteratorIPiSt6vectorIiSaIiEEEEJSt14_List_iteratorIiESt23_Rb_tree_const_iteratorIiES3_EEneISC_EEbRKT_
FN:99,_ZNK2it7ZipIterIN9__gnu_cxx17__normal_iteratorIPiSt6vectorIiSaIiEEEEJS3_EEneIS8_EEbRKT_
FN:104,_ZN2it7ZipIterIN9__gnu_cxx17__normal_iteratorIPiSt6vectorIiSaIiEEEEJS3_EEdeEv
FN:104,_ZN2it7ZipIterIN9__gnu_cxx17__normal_iteratorIPiSt6vectorIiSaIiEEEEJSt14_List_iteratorIiESt23_Rb_tree_const_iteratorIiES3_EEdeEv
FN:116,_ZN2it7ZipIterIN9__gnu_cxx17__normal_iteratorIPiSt6vectorIiSaIiEEEEJSt14_List_iteratorIiESt23_Rb_tree_const_iteratorIiES3_EE11dereferenceIJLm0ELm1ELm2ELm3EEEEDaSt16integer_sequenceImJXspT_EEE
FN:116,_ZN2it7ZipIterIN9__gnu_cxx17__normal_iteratorIPiSt6vectorIiSaIiEEEEJS3_EE11dereferenceIJLm0ELm1EEEEDaSt16integer_sequenceImJXspT_EEE
FN:133,_ZNK2it7ZipIterIN9__gnu_cxx17__normal_iteratorIPiSt6vectorIiSaIiEEEEJS3_EE4lessERKS8_
FN:138,_ZNK2it7ZipIterIN9__gnu_cxx17__normal_iteratorIPiSt6vectorIiSaIiEEEEJSt14_List_iteratorIiESt23_Rb_tree_const_iteratorIiES3_EE5equalERKSC_
FN:138,_ZNK2it7ZipIterIN9__gnu_cxx17__normal_iteratorIPiSt6vectorIiSaIiEEEEJS3_EE5equalERKS8_
FN:177,_ZN2it3ZipIJRSt6vectorIiSaIiEERNSt7__cxx114listIiS2_EERSt3setIiSt4lessIiES2_ERPiEEC2ES4_S8_SD_SF_
FN:182,_ZN2it3ZipIJRSt6vectorIiSaIiEERNSt7__cxx114listIiS2_EERSt3setIiSt4lessIiES2_ERPiEE5beginEv
FN:187,_ZN2it3ZipIJRSt6vectorIiSaIiEERNSt7__cxx114listIiS2_EERSt3setIiSt4lessIiES2_ERPiEE3endEv
FN:218,_ZN2it3ZipIJRSt6vectorIiSaIiEERNSt7__cxx114listIiS2_EERSt3setIiSt4lessIiES2_ERPiEE5beginIJLm0ELm1ELm2ELm3EEEENS_7ZipIterIN9__gnu_cxx17__normal_iteratorISE_S3_EEJSt14_List_iteratorIiESt23_Rb_tree_const_iteratorIiESE_EEESt16integer_sequenceImJXspT_EEE
FN:230,_ZN2it3ZipIJRSt6vectorIiSaIiEERNSt7__cxx114listIiS2_EERSt3setIiSt4lessIiES2_ERPiEE3endIJLm0ELm1ELm2ELm3EEEENS_7ZipIterIN9__gnu_cxx17__normal_iteratorISE_S3_EEJSt14_List_iteratorIiESt23_Rb_tree_const_iteratorIiESE_EEESt16integer_sequenceImJXspT_EEE
FN:273,_ZN2it7zipIterIN9__gnu_cxx17__normal_iteratorIPiSt6vectorIiSaIiEEEEJS3_EEEDaOT_DpOT0_
FN:273,_ZN2it7zipIterIN9__gnu_cxx17__normal_iteratorIPiSt6vectorIiSaIiEEEEJSt14_List_iteratorIiESt23_Rb_tree_const_iteratorIiES3_EEEDaOT_DpOT0_
FN:280,_ZN2it3zipIRSt6vectorIiSaIiEEJRNSt7__cxx114listIiS2_EERSt3setIiSt4lessIiES2_ERPiELi0EEEDaOT_DpOT0_
FN:294,_ZN2it8zipBeginIRSt6vectorIiSaIiEEJRSt5arrayIiLm10EEELi0EEEDaOT_DpOT0_
FN:329,_ZN2it5UnZipIZN12_GLOBAL__N_120STLTest_SortSum_Test8TestBodyEvEUliiiiE_EC2ERKS3_
FN:329,_ZN2it5UnZipIZN12_GLOBAL__N_126STLTest_TransformBoth_Test8TestBodyEvEUliiE_EC2ERKS3_
FN:329,_ZN2it5UnZipIZN12_GLOBAL__N_132LoopingTest_ForEachStdUnzip_Test8TestBodyEvEUlT_T0_T1_T2_E_EC2ERKS7_
FN:329,_ZN2it5UnZipIZN12_GLOBAL__N_123STLTest_Accumulate_Test8TestBodyEvEUliiiE_EC2ERKS3_
FN:329,_ZN2it5UnZipIZN12_GLOBAL__N_122STLTest_Transform_Test8TestBodyEvEUliiE_EC2ERKS3_
FN:335,_ZN2it5UnZipIZN12_GLOBAL__N_122STLTest_Transform_Test8TestBodyEvEUliiE_EclIJSt5tupleIJRiS7_EEEEEDcDpOT_
FN:335,_ZN2it5UnZipIZN12_GLOBAL__N_123STLTest_Accumulate_Test8TestBodyEvEUliiiE_EclIJRiSt5tupleIJS6_S6_EEEEEDcDpOT_
FN:335,_ZN2it5UnZipIZN12_GLOBAL__N_120STLTest_SortSum_Test8TestBodyEvEUliiiiE_EclIJSt5tupleIJRiS7_EES8_EEEDcDpOT_
FN:335,_ZN2it5UnZipIZN12_GLOBAL__N_120STLTest_SortSum_Test8TestBodyEvEUliiiiE_EclIJRSt5tupleIJiiEES6_IJRiS9_EEEEEDcDpOT_
FN:335,_ZN2it5UnZipIZN12_GLOBAL__N_120STLTest_SortSum_Test8TestBodyEvEUliiiiE_EclIJSt5tupleIJRiS7_EERS6_IJiiEEEEEDcDpOT_
FN:335,_ZN2it5UnZipIZN12_GLOBAL__N_126STLTest_TransformBoth_Test8TestBodyEvEUliiE_EclIJSt5tupleIJRiS7_EEEEEDcDpOT_
FN:335,_ZN2it5UnZipIZN12_GLOBAL__N_132LoopingTest_ForEachStdUnzip_Test8TestBodyEvEUlT_T0_T1_T2_E_EclIJSt5tupleIJRiSB_RKiSB_EEEEEDcDpOT_
FN:342,_ZN2it5UnZipIZN12_GLOBAL__N_122STLTest_Transform_Test8TestBodyEvEUliiE_EclIJLm0ELm1EEJSt5tupleIJRiS7_EEEEEDcSt16integer_sequenceImJXspT_EEEDpOT0_
FN:342,_ZN2it5UnZipIZN12_GLOBAL__N_120STLTest_SortSum_Test8TestBodyEvEUliiiiE_EclIJLm0ELm1ELm2ELm3EEJSt5tupleIJRiS7_EERS6_IJiiEEEEEDcSt16integer_sequenceImJXspT_EEEDpOT0_
FN:342,_ZN2it5UnZipIZN12_GLOBAL__N_120STLTest_SortSum_Test8TestBodyEvEUliiiiE_EclIJLm0ELm1ELm2ELm3EEJSt5tupleIJRiS7_EES8_EEEDcSt16integer_sequenceImJXspT_EEEDpOT0_
FN:342,_ZN2it5UnZipIZN12_GLOBAL__N_123STLTest_Accumulate_Test8TestBodyEvEUliiiE_EclIJLm0ELm1ELm2EEJRiSt5tupleIJS6_S6_EEEEEDcSt16integer_sequenceImJXspT_EEEDpOT0_
FN:342,_ZN2it5UnZipIZN12_GLOBAL__N_120STLTest_SortSum_Test8TestBodyEvEUliiiiE_EclIJLm0ELm1ELm2ELm3EEJRSt5tupleIJiiEES6_IJRiS9_EEEEEDcSt16integer_sequenceImJXspT_EEEDpOT0_
FN:342,_ZN2it5UnZipIZN12_GLOBAL__N_126STLTest_TransformBoth_Test8TestBodyEvEUliiE_EclIJLm0ELm1EEJSt5tupleIJRiS7_EEEEEDcSt16integer_sequenceImJXspT_EEEDpOT0_
FN:342,_ZN2it5UnZipIZN12_GLOBAL__N_132LoopingTest_ForEachStdUnzip_Test8TestBodyEvEUlT_T0_T1_T2_E_EclIJLm0ELm1ELm2ELm3EEJSt5tupleIJRiSB_RKiSB_EEEEEDcSt16integer_sequenceImJXspT_EEEDpOT0_
FN:362,_ZN2it5unZipIZN12_GLOBAL__N_120STLTest_SortSum_Test8TestBodyEvEUliiiiE_EEDaT_
FN:362,_ZN2it5unZipIZN12_GLOBAL__N_123STLTest_Accumulate_Test8TestBodyEvEUliiiE_EEDaT_
FN:362,_ZN2it5unZipIZN12_GLOBAL__N_132LoopingTest_ForEachStdUnzip_Test8TestBodyEvEUlT_T0_T1_T2_E_EEDaS3_
FN:362,_ZN2it5unZipIZN12_GLOBAL__N_122STLTest_Transform_Test8TestBodyEvEUliiE_EEDaT_
FN:362,_ZN2it5unZipIZN12_GLOBAL__N_126STLTest_TransformBoth_Test8TestBodyEvEUliiE_EEDaT_
FN:368,_ZN2it5unZipISt5tupleIJRiS2_RKiS2_EEZN12_GLOBAL__N_128LoopingTest_ForEachFunc_Test8TestBodyEvEUlT_T0_T1_T2_E_JLm0ELm1ELm2ELm3EEEEDcOS8_S9_St16integer_sequenceImJXspT1_EEE
FN:368,_ZN2it5unZipIRSt5tupleIJRiS2_RKiS2_EEZN12_GLOBAL__N_130LoopingTest_ForRangeUnzip_Test8TestBodyEvEUlT_T0_T1_T2_E_JLm0ELm1ELm2ELm3EEEEDcOS9_SA_St16integer_sequenceImJXspT1_EEE
FN:374,_ZN2it5unZipIRSt5tupleIJRiS2_RKiS2_EEZN12_GLOBAL__N_130LoopingTest_ForRangeUnzip_Test8TestBodyEvEUlT_T0_T1_T2_E_EEDcOS9_SA_
FN:374,_ZN2it5unZipISt5tupleIJRiS2_RKiS2_EEZN12_GLOBAL__N_128LoopingTest_ForEachFunc_Test8TestBodyEvEUlT_T0_T1_T2_E_EEDcOS8_S9_
FN:388,_ZN2it7forEachIJRSt6vectorIiSaIiEERNSt7__cxx114listIiS2_EERSt3setIiSt4lessIiES2_ERPiZN12_GLOBAL__N_128LoopingTest_ForEachFunc_Test8TestBodyEvEUlT_T0_T1_T2_E_EEEvDpOT_
FN:390,_ZZN2it7forEachIJRSt6vectorIiSaIiEERNSt7__cxx114listIiS2_EERSt3setIiSt4lessIiES2_ERPiZN12_GLOBAL__N_128LoopingTest_ForEachFunc_Test8TestBodyEvEUlT_T0_T1_T2_E_EEEvDpOT_ENKUlSI_DpOT0_E_clISM_JS4_S8_SD_SF_EEEDaSI_SS_
FNDA:1,_ZN2it5unZipIZN12_GLOBAL__N_126STLTest_TransformBoth_Test8TestBodyEvEUliiE_EEDaT_
FNDA:5,_ZNK2it7ZipIterIN9__gnu_cxx17__normal_iteratorIPiSt6vectorIiSaIiEEEEJS3_EEplISt26random_access_iterator_tagLi0EEES8_i
FNDA:10,_ZN2it5UnZipIZN12_GLOBAL__N_126STLTest_TransformBoth_Test8TestBodyEvEUliiE_EclIJLm0ELm1EEJSt5tupleIJRiS7_EEEEEDcSt16integer_sequenceImJXspT_EEEDpOT0_
FNDA:32,_ZN2it5UnZipIZN12_GLOBAL__N_132LoopingTest_ForEachStdUnzip_Test8TestBodyEvEUlT_T0_T1_T2_E_EclIJSt5tupleIJRiSB_RKiSB_EEEEEDcDpOT_
FNDA:10,_ZN2it7ZipIterIN9__gnu_cxx17__normal_iteratorIPiSt6vectorIiSaIiEEEEJSt14_List_iteratorIiESt23_Rb_tree_const_iteratorIiES3_EEC2ES7_S9_SB_S3_
FNDA:1,_ZN2it5UnZipIZN12_GLOBAL__N_126STLTest_TransformBoth_Test8TestBodyEvEUliiE_EC2ERKS3_
FNDA:32,_ZN2it5unZipISt5tupleIJRiS2_RKiS2_EEZN12_GLOBAL__N_128LoopingTest_ForEachFunc_Test8TestBodyEvEUlT_T0_T1_T2_E_JLm0ELm1ELm2ELm3EEEEDcOS8_S9_St16integer_sequenceImJXspT1_EEE
FNDA:1,_ZN2it5UnZipIZN12_GLOBAL__N_132LoopingTest_ForEachStdUnzip_Test8TestBodyEvEUlT_T0_T1_T2_E_EC2ERKS7_
FNDA:165,_ZNK2it7ZipIterIN9__gnu_cxx17__normal_iteratorIPiSt6vectorIiSaIiEEEEJSt14_List_iteratorIiESt23_Rb_tree_const_iteratorIiES3_EE5equalERKSC_
FNDA:6,_ZNK2it7ZipIterIN9__gnu_cxx17__normal_iteratorIPiSt6vectorIiSaIiEEEEJS3_EEltIS8_EEbRKT_
FNDA:55,_ZNK2it7ZipIterIN9__gnu_cxx17__normal_iteratorIPiSt6vectorIiSaIiEEEEJS3_EEneIS8_EEbRKT_
FNDA:0,_ZNK2it7ZipIterIN9__gnu_cxx17__normal_iteratorIPiSt6vectorIiSaIiEEEEJS3_EEmiISt26random_access_iterator_tagLi0EEES8_i
FNDA:1,_ZN2it5UnZipIZN12_GLOBAL__N_123STLTest_Accumulate_Test8TestBodyEvEUliiiE_EC2ERKS3_
FNDA:32,_ZN2it5UnZipIZN12_GLOBAL__N_132LoopingTest_ForEachStdUnzip_Test8TestBodyEvEUlT_T0_T1_T2_E_EclIJLm0ELm1ELm2ELm3EEJSt5tupleIJRiSB_RKiSB_EEEEEDcSt16integer_sequenceImJXspT_EEEDpOT0_
FNDA:65,_ZN2it7ZipIterIN9__gnu_cxx17__normal_iteratorIPiSt6vectorIiSaIiEEEEJS3_EEmmISt26random_access_iterator_tagLi0EEERS8_v
FNDA:10,_ZN2it5UnZipIZN12_GLOBAL__N_126STLTest_TransformBoth_Test8TestBodyEvEUliiE_EclIJSt5tupleIJRiS7_EEEEEDcDpOT_
FNDA:19,_ZN2it5UnZipIZN12_GLOBAL__N_120STLTest_SortSum_Test8TestBodyEvEUliiiiE_EclIJLm0ELm1ELm2ELm3EEJRSt5tupleIJiiEES6_IJRiS9_EEEEEDcSt16integer_sequenceImJXspT_EEEDpOT0_
FNDA:1,_ZN2it5UnZipIZN12_GLOBAL__N_122STLTest_Transform_Test8TestBodyEvEUliiE_EC2ERKS3_
FNDA:13,_ZN2it7ZipIterIN9__gnu_cxx17__normal_iteratorIPiSt6vectorIiSaIiEEEEJS3_EEC2ES7_S3_
FNDA:26,_ZN2it7ZipIterIN9__gnu_cxx17__normal_iteratorIPiSt6vectorIiSaIiEEEEJS3_EEaSERKS8_
FNDA:1,_ZN2it8zipBeginIRSt6vectorIiSaIiEEJRSt5arrayIiLm10EEELi0EEEDaOT_DpOT0_
FNDA:32,_ZN2it5unZipIRSt5tupleIJRiS2_RKiS2_EEZN12_GLOBAL__N_130LoopingTest_ForRangeUnzip_Test8TestBodyEvEUlT_T0_T1_T2_E_JLm0ELm1ELm2ELm3EEEEDcOS9_SA_St16integer_sequenceImJXspT1_EEE
FNDA:63,_ZN2it7ZipIterIN9__gnu_cxx17__normal_iteratorIPiSt6vectorIiSaIiEEEEJS3_EEppEv
FNDA:58,_ZNK2it7ZipIterIN9__gnu_cxx17__normal_iteratorIPiSt6vectorIiSaIiEEEEJS3_EE5equalERKS8_
FNDA:4,_ZN2it7zipIterIN9__gnu_cxx17__normal_iteratorIPiSt6vectorIiSaIiEEEEJSt14_List_iteratorIiESt23_Rb_tree_const_iteratorIiES3_EEEDaOT_DpOT0_
FNDA:233,_ZN2it7ZipIterIN9__gnu_cxx17__normal_iteratorIPiSt6vectorIiSaIiEEEEJS3_EE11dereferenceIJLm0ELm1EEEEDaSt16integer_sequenceImJXspT_EEE
FNDA:1,_ZN2it7forEachIJRSt6vectorIiSaIiEERNSt7__cxx114listIiS2_EERSt3setIiSt4lessIiES2_ERPiZN12_GLOBAL__N_128LoopingTest_ForEachFunc_Test8TestBodyEvEUlT_T0_T1_T2_E_EEEvDpOT_
FNDA:1,_ZN2it5unZipIZN12_GLOBAL__N_123STLTest_Accumulate_Test8TestBodyEvEUliiiE_EEDaT_
FNDA:0,_ZN2it5UnZipIZN12_GLOBAL__N_120STLTest_SortSum_Test8TestBodyEvEUliiiiE_EclIJLm0ELm1ELm2ELm3EEJSt5tupleIJRiS7_EERS6_IJiiEEEEEDcSt16integer_sequenceImJXspT_EEEDpOT0_
FNDA:9,_ZN2it5UnZipIZN12_GLOBAL__N_120STLTest_SortSum_Test8TestBodyEvEUliiiiE_EclIJLm0ELm1ELm2ELm3EEJSt5tupleIJRiS7_EES8_EEEDcSt16integer_sequenceImJXspT_EEEDpOT0_
FNDA:9,_ZN2it5UnZipIZN12_GLOBAL__N_120STLTest_SortSum_Test8TestBodyEvEUliiiiE_EclIJSt5tupleIJRiS7_EES8_EEEDcDpOT_
FNDA:32,_ZN2it5unZipIRSt5tupleIJRiS2_RKiS2_EEZN12_GLOBAL__N_130LoopingTest_ForRangeUnzip_Test8TestBodyEvEUlT_T0_T1_T2_E_EEDcOS9_SA_
FNDA:160,_ZN2it7ZipIterIN9__gnu_cxx17__normal_iteratorIPiSt6vectorIiSaIiEEEEJSt14_List_iteratorIiESt23_Rb_tree_const_iteratorIiES3_EE11dereferenceIJLm0ELm1ELm2ELm3EEEEDaSt16integer_sequenceImJXspT_EEE
FNDA:1,_ZN2it5UnZipIZN12_GLOBAL__N_120STLTest_SortSum_Test8TestBodyEvEUliiiiE_EC2ERKS3_
FNDA:1,_ZN2it5unZipIZN12_GLOBAL__N_132LoopingTest_ForEachStdUnzip_Test8TestBodyEvEUlT_T0_T1_T2_E_EEDaS3_
FNDA:10,_ZN2it5UnZipIZN12_GLOBAL__N_123STLTest_Accumulate_Test8TestBodyEvEUliiiE_EclIJRiSt5tupleIJS6_S6_EEEEEDcDpOT_
FNDA:3,_ZN2it3ZipIJRSt6vectorIiSaIiEERNSt7__cxx114listIiS2_EERSt3setIiSt4lessIiES2_ERPiEE5beginEv
FNDA:10,_ZN2it5UnZipIZN12_GLOBAL__N_122STLTest_Transform_Test8TestBodyEvEUliiE_EclIJSt5tupleIJRiS7_EEEEEDcDpOT_
FNDA:9,_ZNK2it7ZipIterIN9__gnu_cxx17__normal_iteratorIPiSt6vectorIiSaIiEEEEJS3_EEmiISt26random_access_iterator_tagLi0EEElRKS8_
FNDA:10,_ZN2it5UnZipIZN12_GLOBAL__N_122STLTest_Transform_Test8TestBodyEvEUliiE_EclIJLm0ELm1EEJSt5tupleIJRiS7_EEEEEDcSt16integer_sequenceImJXspT_EEEDpOT0_
FNDA:165,_ZNK2it7ZipIterIN9__gnu_cxx17__normal_iteratorIPiSt6vectorIiSaIiEEEEJSt14_List_iteratorIiESt23_Rb_tree_const_iteratorIiES3_EEneISC_EEbRKT_
FNDA:1,_ZN2it5unZipIZN12_GLOBAL__N_120STLTest_SortSum_Test8TestBodyEvEUliiiiE_EEDaT_
FNDA:3,_ZN2it3ZipIJRSt6vectorIiSaIiEERNSt7__cxx114listIiS2_EERSt3setIiSt4lessIiES2_ERPiEE5beginIJLm0ELm1ELm2ELm3EEEENS_7ZipIterIN9__gnu_cxx17__normal_iteratorISE_S3_EEJSt14_List_iteratorIiESt23_Rb_tree_const_iteratorIiESE_EEESt16integer_sequenceImJXspT_EEE
FNDA:6,_ZNK2it7ZipIterIN9__gnu_cxx17__normal_iteratorIPiSt6vectorIiSaIiEEEEJS3_EE4lessERKS8_
FNDA:1,_ZZN2it7forEachIJRSt6vectorIiSaIiEERNSt7__cxx114listIiS2_EERSt3setIiSt4lessIiES2_ERPiZN12_GLOBAL__N_128LoopingTest_ForEachFunc_Test8TestBodyEvEUlT_T0_T1_T2_E_EEEvDpOT_ENKUlSI_DpOT0_E_clISM_JS4_S8_SD_SF_EEEDaSI_SS_
FNDA:3,_ZN2it3ZipIJRSt6vectorIiSaIiEERNSt7__cxx114listIiS2_EERSt3setIiSt4lessIiES2_ERPiEE3endIJLm0ELm1ELm2ELm3EEEENS_7ZipIterIN9__gnu_cxx17__normal_iteratorISE_S3_EEJSt14_List_iteratorIiESt23_Rb_tree_const_iteratorIiESE_EEESt16integer_sequenceImJXspT_EEE
FNDA:160,_ZN2it7ZipIterIN9__gnu_cxx17__normal_iteratorIPiSt6vectorIiSaIiEEEEJSt14_List_iteratorIiESt23_Rb_tree_const_iteratorIiES3_EEppEv
FNDA:32,_ZN2it5unZipISt5tupleIJRiS2_RKiS2_EEZN12_GLOBAL__N_128LoopingTest_ForEachFunc_Test8TestBodyEvEUlT_T0_T1_T2_E_EEDcOS8_S9_
FNDA:160,_ZN2it7ZipIterIN9__gnu_cxx17__normal_iteratorIPiSt6vectorIiSaIiEEEEJSt14_List_iteratorIiESt23_Rb_tree_const_iteratorIiES3_EEdeEv
FNDA:3,_ZN2it3ZipIJRSt6vectorIiSaIiEERNSt7__cxx114listIiS2_EERSt3setIiSt4lessIiES2_ERPiEEC2ES4_S8_SD_SF_
FNDA:3,_ZN2it3zipIRSt6vectorIiSaIiEEJRNSt7__cxx114listIiS2_EERSt3setIiSt4lessIiES2_ERPiELi0EEEDaOT_DpOT0_
FNDA:3,_ZN2it3ZipIJRSt6vectorIiSaIiEERNSt7__cxx114listIiS2_EERSt3setIiSt4lessIiES2_ERPiEE3endEv
FNDA:19,_ZN2it7ZipIterIN9__gnu_cxx17__normal_iteratorIPiSt6vectorIiSaIiEEEEJS3_EEC2EOS8_
FNDA:3,_ZNK2it7ZipIterIN9__gnu_cxx17__normal_iteratorIPiSt6vectorIiSaIiEEEEJS3_EEeqIS8_EEbRKT_
FNDA:0,_ZN2it5UnZipIZN12_GLOBAL__N_120STLTest_SortSum_Test8TestBodyEvEUliiiiE_EclIJSt5tupleIJRiS7_EERS6_IJiiEEEEEDcDpOT_
FNDA:10,_ZN2it5UnZipIZN12_GLOBAL__N_123STLTest_Accumulate_Test8TestBodyEvEUliiiE_EclIJLm0ELm1ELm2EEJRiSt5tupleIJS6_S6_EEEEEDcSt16integer_sequenceImJXspT_EEEDpOT0_
FNDA:19,_ZN2it5UnZipIZN12_GLOBAL__N_120STLTest_SortSum_Test8TestBodyEvEUliiiiE_EclIJRSt5tupleIJiiEES6_IJRiS9_EEEEEDcDpOT_
FNDA:13,_ZN2it7zipIterIN9__gnu_cxx17__normal_iteratorIPiSt6vectorIiSaIiEEEEJS3_EEEDaOT_DpOT0_
FNDA:1,_ZN2it5unZipIZN12_GLOBAL__N_122STLTest_Transform_Test8TestBodyEvEUliiE_EEDaT_
FNDA:233,_ZN2it7ZipIterIN9__gnu_cxx17__normal_iteratorIPiSt6vectorIiSaIiEEEEJS3_EEdeEv
FNF:60
FNH:57
DA:34,45
DA:56,23
DA:65,223
DA:71,65
DA:78,5
DA:81,0
DA:88,9
DA:93,6
DA:96,3
DA:99,220
DA:104,393
DA:116,393
DA:118,393
DA:133,6
DA:138,223
DA:177,3
DA:182,3
DA:187,3
DA:218,3
DA:220,3
DA:230,3
DA:232,3
DA:273,17
DA:275,17
DA:280,3
DA:282,3
DA:294,1
DA:296,1
DA:329,5
DA:335,90
DA:338,90
DA:342,90
DA:344,90
DA:362,5
DA:364,5
DA:368,64
DA:370,64
DA:374,64
DA:376,64
DA:388,1
DA:390,2
DA:392,33
DA:394,32
DA:397,1
DA:398,1
LF:45
LH:44
end_of_record
TN:
SF:/home/matheus/Algoritmos/ZipIter/test/LoopingTest.cpp
FN:17,_ZN12_GLOBAL__N_111LoopingTestC2Ev
FN:19,_ZN12_GLOBAL__N_111LoopingTestD2Ev
FN:22,_ZN12_GLOBAL__N_111LoopingTest5SetUpEv
FN:50,_ZN12_GLOBAL__N_111LoopingTest8TearDownEv
FN:56,_ZN12_GLOBAL__N_111LoopingTest3rngEii
FN:62,_ZN12_GLOBAL__N_111LoopingTest10insertBackERSt6vectorIiSaIiEEiiii
FN:92,_ZN12_GLOBAL__N_127LoopingTest_ForEachStd_Test8TestBodyEv
FN:92,_ZN12_GLOBAL__N_127LoopingTest_ForEachStd_TestC2Ev
FN:92,_ZN12_GLOBAL__N_127LoopingTest_ForEachStd_TestD0Ev
FN:92,_ZN12_GLOBAL__N_127LoopingTest_ForEachStd_TestD2Ev
FN:94,_ZZN12_GLOBAL__N_127LoopingTest_ForEachStd_Test8TestBodyEvENKUlT_E_clISt5tupleIJRiS5_RKiS5_EEEEDaS1_
FN:103,_ZN12_GLOBAL__N_132LoopingTest_ForEachStdUnzip_TestD0Ev
FN:103,_ZN12_GLOBAL__N_132LoopingTest_ForEachStdUnzip_TestD2Ev
FN:103,_ZN12_GLOBAL__N_132LoopingTest_ForEachStdUnzip_Test8TestBodyEv
FN:103,_ZN12_GLOBAL__N_132LoopingTest_ForEachStdUnzip_TestC2Ev
FN:105,_ZZN12_GLOBAL__N_132LoopingTest_ForEachStdUnzip_Test8TestBodyEvENKUlT_T0_T1_T2_E_clIiiiiEEDaS1_S2_S3_S4_
FN:116,_ZN12_GLOBAL__N_125LoopingTest_ForRange_TestC2Ev
FN:116,_ZN12_GLOBAL__N_125LoopingTest_ForRange_TestD2Ev
FN:116,_ZN12_GLOBAL__N_125LoopingTest_ForRange_TestD0Ev
FN:116,_ZN12_GLOBAL__N_125LoopingTest_ForRange_Test8TestBodyEv
FN:125,_ZN12_GLOBAL__N_130LoopingTest_ForRangeUnzip_TestD0Ev
FN:125,_ZN12_GLOBAL__N_130LoopingTest_ForRangeUnzip_Test8TestBodyEv
FN:125,_ZN12_GLOBAL__N_130LoopingTest_ForRangeUnzip_TestC2Ev
FN:125,_ZN12_GLOBAL__N_130LoopingTest_ForRangeUnzip_TestD2Ev
FN:127,_ZZN12_GLOBAL__N_130LoopingTest_ForRangeUnzip_Test8TestBodyEvENKUlT_T0_T1_T2_E_clIiiiiEEDaS1_S2_S3_S4_
FN:136,_ZN12_GLOBAL__N_128LoopingTest_ForEachFunc_TestD0Ev
FN:136,_ZN12_GLOBAL__N_128LoopingTest_ForEachFunc_Test8TestBodyEv
FN:136,_ZN12_GLOBAL__N_128LoopingTest_ForEachFunc_TestC2Ev
FN:136,_ZN12_GLOBAL__N_128LoopingTest_ForEachFunc_TestD2Ev
FN:138,_ZZN12_GLOBAL__N_128LoopingTest_ForEachFunc_Test8TestBodyEvENKUlT_T0_T1_T2_E_clIiiiiEEDaS1_S2_S3_S4_
FN:146,_GLOBAL__sub_I_LoopingTest.cpp
FN:146,_Z41__static_initialization_and_destruction_0ii
FNDA:1,_ZN12_GLOBAL__N_125LoopingTest_ForRange_Test8TestBodyEv
FNDA:1,_ZN12_GLOBAL__N_128LoopingTest_ForEachFunc_TestD2Ev
FNDA:5,_ZN12_GLOBAL__N_111LoopingTest5SetUpEv
FNDA:1,_ZN12_GLOBAL__N_132LoopingTest_ForEachStdUnzip_TestC2Ev
FNDA:1,_ZN12_GLOBAL__N_130LoopingTest_ForRangeUnzip_TestD2Ev
FNDA:1,_ZN12_GLOBAL__N_132LoopingTest_ForEachStdUnzip_Test8TestBodyEv
FNDA:1,_ZN12_GLOBAL__N_125LoopingTest_ForRange_TestD0Ev
FNDA:1,_ZN12_GLOBAL__N_125LoopingTest_ForRange_TestD2Ev
FNDA:1,_ZN12_GLOBAL__N_127LoopingTest_ForEachStd_TestD2Ev
FNDA:645,_ZN12_GLOBAL__N_111LoopingTest3rngEii
FNDA:1,_ZN12_GLOBAL__N_125LoopingTest_ForRange_TestC2Ev
FNDA:1,_ZN12_GLOBAL__N_127LoopingTest_ForEachStd_TestD0Ev
FNDA:1,_ZN12_GLOBAL__N_132LoopingTest_ForEachStdUnzip_TestD2Ev
FNDA:1,_ZN12_GLOBAL__N_132LoopingTest_ForEachStdUnzip_TestD0Ev
FNDA:32,_ZZN12_GLOBAL__N_128LoopingTest_ForEachFunc_Test8TestBodyEvENKUlT_T0_T1_T2_E_clIiiiiEEDaS1_S2_S3_S4_
FNDA:5,_ZN12_GLOBAL__N_111LoopingTestC2Ev
FNDA:1,_ZN12_GLOBAL__N_128LoopingTest_ForEachFunc_Test8TestBodyEv
FNDA:32,_ZZN12_GLOBAL__N_127LoopingTest_ForEachStd_Test8TestBodyEvENKUlT_E_clISt5tupleIJRiS5_RKiS5_EEEEDaS1_
FNDA:32,_ZZN12_GLOBAL__N_132LoopingTest_ForEachStdUnzip_Test8TestBodyEvENKUlT_T0_T1_T2_E_clIiiiiEEDaS1_S2_S3_S4_
FNDA:1,_ZN12_GLOBAL__N_128LoopingTest_ForEachFunc_TestC2Ev
FNDA:5,_ZN12_GLOBAL__N_111LoopingTestD2Ev
FNDA:32,_ZZN12_GLOBAL__N_130LoopingTest_ForRangeUnzip_Test8TestBodyEvENKUlT_T0_T1_T2_E_clIiiiiEEDaS1_S2_S3_S4_
FNDA:1,_ZN12_GLOBAL__N_128LoopingTest_ForEachFunc_TestD0Ev
FNDA:1,_ZN12_GLOBAL__N_130LoopingTest_ForRangeUnzip_Test8TestBodyEv
FNDA:1,_ZN12_GLOBAL__N_130LoopingTest_ForRangeUnzip_TestC2Ev
FNDA:1,_ZN12_GLOBAL__N_127LoopingTest_ForEachStd_TestC2Ev
FNDA:1,_ZN12_GLOBAL__N_130LoopingTest_ForRangeUnzip_TestD0Ev
FNDA:1,_Z41__static_initialization_and_destruction_0ii
FNDA:1,_ZN12_GLOBAL__N_127LoopingTest_ForEachStd_Test8TestBodyEv
FNDA:320,_ZN12_GLOBAL__N_111LoopingTest10insertBackERSt6vectorIiSaIiEEiiii
FNDA:1,_GLOBAL__sub_I_LoopingTest.cpp
FNDA:5,_ZN12_GLOBAL__N_111LoopingTest8TearDownEv
FNF:32
FNH:32
DA:17,5
DA:19,5
DA:22,5
DA:24,5
DA:26,5
DA:28,5
DA:30,165
DA:32,160
DA:33,160
DA:34,160
DA:35,160
DA:39,5
DA:40,5
DA:41,5
DA:42,5
DA:43,5
DA:45,325
DA:46,160
DA:47,5
DA:50,5
DA:52,5
DA:53,5
DA:56,645
DA:58,645
DA:62,320
DA:64,320
DA:65,320
DA:66,320
DA:67,320
DA:68,320
DA:92,5
DA:94,34
DA:96,32
DA:97,34
DA:99,1
DA:100,1
DA:103,5
DA:105,34
DA:107,32
DA:108,34
DA:110,1
DA:111,1
DA:116,5
DA:118,33
DA:119,32
DA:121,1
DA:122,1
DA:125,5
DA:127,65
DA:129,32
DA:130,64
DA:132,1
DA:133,1
DA:136,5
DA:138,34
DA:140,32
DA:141,33
DA:143,1
DA:144,1
DA:146,3
LF:60
LH:60
end_of_record
TN:
SF:/home/matheus/Algoritmos/ZipIter/test/STLTest.cpp
FN:17,_ZN12_GLOBAL__N_17STLTestC2Ev
FN:19,_ZN12_GLOBAL__N_17STLTestD2Ev
FN:21,_ZN12_GLOBAL__N_17STLTest5SetUpEv
FN:29,_ZN12_GLOBAL__N_17STLTest8TearDownEv
FN:42,_ZN12_GLOBAL__N_126STLTest_SortEnumerate_TestD2Ev
FN:42,_ZN12_GLOBAL__N_126STLTest_SortEnumerate_Test8TestBodyEv
FN:42,_ZN12_GLOBAL__N_126STLTest_SortEnumerate_TestC2Ev
FN:42,_ZN12_GLOBAL__N_126STLTest_SortEnumerate_TestD0Ev
FN:58,_ZN12_GLOBAL__N_120STLTest_SortSum_TestD0Ev
FN:58,_ZN12_GLOBAL__N_120STLTest_SortSum_TestD2Ev
FN:58,_ZN12_GLOBAL__N_120STLTest_SortSum_TestC2Ev
FN:58,_ZN12_GLOBAL__N_120STLTest_SortSum_Test8TestBodyEv
FN:63,_ZZN12_GLOBAL__N_120STLTest_SortSum_Test8TestBodyEvENKUliiiiE_clEiiii
FN:70,_ZN12_GLOBAL__N_123STLTest_Accumulate_Test8TestBodyEv
FN:70,_ZN12_GLOBAL__N_123STLTest_Accumulate_TestD0Ev
FN:70,_ZN12_GLOBAL__N_123STLTest_Accumulate_TestD2Ev
FN:70,_ZN12_GLOBAL__N_123STLTest_Accumulate_TestC2Ev
FN:72,_ZZN12_GLOBAL__N_123STLTest_Accumulate_Test8TestBodyEvENKUliiiE_clEiii
FN:78,_ZN12_GLOBAL__N_122STLTest_Transform_TestD0Ev
FN:78,_ZN12_GLOBAL__N_122STLTest_Transform_TestD2Ev
FN:78,_ZN12_GLOBAL__N_122STLTest_Transform_Test8TestBodyEv
FN:78,_ZN12_GLOBAL__N_122STLTest_Transform_TestC2Ev
FN:82,_ZZN12_GLOBAL__N_122STLTest_Transform_Test8TestBodyEvENKUliiE_clEii
FN:88,_ZN12_GLOBAL__N_126STLTest_TransformBoth_Test8TestBodyEv
FN:88,_ZN12_GLOBAL__N_126STLTest_TransformBoth_TestC2Ev
FN:88,_ZN12_GLOBAL__N_126STLTest_TransformBoth_TestD2Ev
FN:88,_ZN12_GLOBAL__N_126STLTest_TransformBoth_TestD0Ev
FN:93,_ZZN12_GLOBAL__N_126STLTest_TransformBoth_Test8TestBodyEvENKUliiE_clEii
FN:106,_ZN12_GLOBAL__N_120STLTest_Reverse_TestD2Ev
FN:106,_ZN12_GLOBAL__N_120STLTest_Reverse_Test8TestBodyEv
FN:106,_ZN12_GLOBAL__N_120STLTest_Reverse_TestC2Ev
FN:106,_ZN12_GLOBAL__N_120STLTest_Reverse_TestD0Ev
FN:122,_Z41__static_initialization_and_destruction_0ii
FN:122,_GLOBAL__sub_I_STLTest.cpp
FNDA:10,_ZZN12_GLOBAL__N_126STLTest_TransformBoth_Test8TestBodyEvENKUliiE_clEii
FNDA:1,_ZN12_GLOBAL__N_126STLTest_SortEnumerate_TestD2Ev
FNDA:10,_ZZN12_GLOBAL__N_122STLTest_Transform_Test8TestBodyEvENKUliiE_clEii
FNDA:1,_ZN12_GLOBAL__N_120STLTest_Reverse_TestC2Ev
FNDA:1,_ZN12_GLOBAL__N_120STLTest_SortSum_TestD0Ev
FNDA:1,_ZN12_GLOBAL__N_120STLTest_SortSum_TestD2Ev
FNDA:1,_ZN12_GLOBAL__N_123STLTest_Accumulate_Test8TestBodyEv
FNDA:1,_ZN12_GLOBAL__N_126STLTest_TransformBoth_TestD0Ev
FNDA:1,_ZN12_GLOBAL__N_122STLTest_Transform_TestC2Ev
FNDA:1,_ZN12_GLOBAL__N_126STLTest_SortEnumerate_Test8TestBodyEv
FNDA:1,_ZN12_GLOBAL__N_123STLTest_Accumulate_TestD0Ev
FNDA:6,_ZN12_GLOBAL__N_17STLTestC2Ev
FNDA:1,_ZN12_GLOBAL__N_120STLTest_Reverse_TestD0Ev
FNDA:1,_ZN12_GLOBAL__N_120STLTest_SortSum_TestC2Ev
FNDA:6,_ZN12_GLOBAL__N_17STLTest5SetUpEv
FNDA:1,_ZN12_GLOBAL__N_120STLTest_SortSum_Test8TestBodyEv
FNDA:6,_ZN12_GLOBAL__N_17STLTestD2Ev
FNDA:1,_ZN12_GLOBAL__N_123STLTest_Accumulate_TestC2Ev
FNDA:1,_ZN12_GLOBAL__N_126STLTest_SortEnumerate_TestD0Ev
FNDA:1,_ZN12_GLOBAL__N_123STLTest_Accumulate_TestD2Ev
FNDA:10,_ZZN12_GLOBAL__N_123STLTest_Accumulate_Test8TestBodyEvENKUliiiE_clEiii
FNDA:1,_ZN12_GLOBAL__N_126STLTest_SortEnumerate_TestC2Ev
FNDA:1,_ZN12_GLOBAL__N_126STLTest_TransformBoth_Test8TestBodyEv
FNDA:1,_ZN12_GLOBAL__N_122STLTest_Transform_TestD0Ev
FNDA:1,_ZN12_GLOBAL__N_120STLTest_Reverse_TestD2Ev
FNDA:1,_ZN12_GLOBAL__N_120STLTest_Reverse_Test8TestBodyEv
FNDA:1,_ZN12_GLOBAL__N_122STLTest_Transform_TestD2Ev
FNDA:1,_ZN12_GLOBAL__N_126STLTest_TransformBoth_TestC2Ev
FNDA:6,_ZN12_GLOBAL__N_17STLTest8TearDownEv
FNDA:1,_ZN12_GLOBAL__N_122STLTest_Transform_Test8TestBodyEv
FNDA:1,_Z41__static_initialization_and_destruction_0ii
FNDA:1,_GLOBAL__sub_I_STLTest.cpp
FNDA:1,_ZN12_GLOBAL__N_126STLTest_TransformBoth_TestD2Ev
FNDA:28,_ZZN12_GLOBAL__N_120STLTest_SortSum_Test8TestBodyEvENKUliiiiE_clEiiii
FNF:34
FNH:34
DA:17,6
DA:19,6
DA:21,6
DA:23,6
DA:25,6
DA:26,6
DA:27,6
DA:29,6
DA:42,5
DA:44,1
DA:46,2
DA:48,11
DA:49,10
DA:51,1
DA:53,11
DA:54,10
DA:55,1
DA:58,5
DA:60,1
DA:61,1
DA:63,29
DA:65,10
DA:66,9
DA:67,1
DA:70,5
DA:72,11
DA:74,1
DA:75,1
DA:78,5
DA:80,2
DA:82,11
DA:84,11
DA:85,10
DA:86,1
DA:88,5
DA:90,2
DA:93,12
DA:95,20
DA:96,23
DA:98,11
DA:100,10
DA:101,10
DA:103,1
DA:106,5
DA:108,2
DA:109,1
DA:111,1
DA:113,11
DA:115,10
DA:116,10
DA:118,1
DA:122,3
LF:52
LH:52
end_of_record
